(lp0
ccopy_reg
_reconstructor
p1
(c__main__
block
p2
c__builtin__
object
p3
Ntp4
Rp5
(dp6
S'parentHash'
p7
I0
sS'hash'
p8
V6effa17554f47313c05b8545f3d554385453406992e0e2aeb56532055d87f84c
p9
sS'contents'
p10
S'genesisBlock'
p11
sS'blockNumber'
p12
I0
sbag1
(g2
g3
Ntp13
Rp14
(dp15
g7
g9
sg8
V0d51e98ae41e82a764a74638330c64f2ce47d11d66b1f061bc47c637993c1795
p16
sg10
S'Machine-ID: 130888'
p17
sg12
I1
sbag1
(g2
g3
Ntp18
Rp19
(dp20
g7
g16
sg8
Vbf418cdd1ef9534c012ff3dd40051013ac432c490316dfaf208b12ab5e9bd450
p21
sg10
S'Machine-ID: 228673'
p22
sg12
I2
sbag1
(g2
g3
Ntp23
Rp24
(dp25
g7
g21
sg8
Va9396a46c9d114323d693268a6833e5446d74972ef46091e799ec39b6bc5ad0e
p26
sg10
S'Machine-ID: 973055'
p27
sg12
I3
sbag1
(g2
g3
Ntp28
Rp29
(dp30
g7
g26
sg8
V1044803fd78817c1f6fed078be4dccafabb34645e36e41fd50f747b8512b3d9f
p31
sg10
S'Machine-ID: 816225'
p32
sg12
I4
sbag1
(g2
g3
Ntp33
Rp34
(dp35
g7
g31
sg8
Vaee5d8fc1afbee01dfb05faca2d29ac88fe59d606ebe34c13f0d61de7a1b94ce
p36
sg10
S'Machine-ID: 334335'
p37
sg12
I5
sbag1
(g2
g3
Ntp38
Rp39
(dp40
g7
g36
sg8
Ve2f3b6377a7da6288834996651284d78406251b2b2d6a84da88bb7a9332de451
p41
sg10
S'Machine-ID: 865541'
p42
sg12
I6
sbag1
(g2
g3
Ntp43
Rp44
(dp45
g7
g41
sg8
V8648498432d9b3cc839c703c6d8074dd241628cf17bb03b9de3f4ca12d9416f4
p46
sg10
S'Machine-ID: 955687'
p47
sg12
I7
sbag1
(g2
g3
Ntp48
Rp49
(dp50
g7
g46
sg8
V826cb90f22d4bd1b338b41d5c324753f6a9a745ecc56fda71a316a846d2914e6
p51
sg10
S'Machine-ID: 410895'
p52
sg12
I8
sbag1
(g2
g3
Ntp53
Rp54
(dp55
g7
g51
sg8
V5ccc9c4ae7baf4cfd3a1f0141fc37db20d18484d1d12e55c0b226a5cb16eebf3
p56
sg10
S'Machine-ID: 292472'
p57
sg12
I9
sbag1
(g2
g3
Ntp58
Rp59
(dp60
g7
g56
sg8
V495729306b8ae6f9eb4404b007f624b49608a7845bfe71162cbaf59610942339
p61
sg10
S'Machine-ID: 479606'
p62
sg12
I10
sba.